; Function Attrs: mustprogress uwtable
define noundef ptr @_ZN3re29Prefilter10FromRegexpEPNS_6RegexpE(ptr noundef %re) local_unnamed_addr #0 align 2 {
entry:
  %cmp = icmp eq ptr %re, null
  br i1 %cmp, label %return, label %if.end

if.end:                                           ; preds = %entry
  %call = tail call noundef ptr @_ZN3re26Regexp8SimplifyEv(ptr noundef nonnull align 8 dereferenceable(40) %re)
  %cmp1 = icmp eq ptr %call, null
  br i1 %cmp1, label %return, label %if.end3

if.end3:                                          ; preds = %if.end
  %call4 = tail call noundef ptr @_ZN3re29Prefilter9BuildInfoEPNS_6RegexpE(ptr noundef nonnull %call)
  tail call void @_ZN3re26Regexp6DecrefEv(ptr noundef nonnull align 8 dereferenceable(40) %call)
  %cmp5 = icmp eq ptr %call4, null
  br i1 %cmp5, label %return, label %if.end7

if.end7:                                          ; preds = %if.end3
  %is_exact_.i = getelementptr inbounds i8, ptr %call4, i64 48
  %0 = load i8, ptr %is_exact_.i, align 8
  %1 = and i8 %0, 1
  %tobool.not.i = icmp eq i8 %1, 0
  br i1 %tobool.not.i, label %entry.if.end_crit_edge.i, label %if.then.i

entry.if.end_crit_edge.i:                         ; preds = %if.end7
  %match_3.phi.trans.insert.i = getelementptr inbounds i8, ptr %call4, i64 56
  %.pre.i = load ptr, ptr %match_3.phi.trans.insert.i, align 8
  br label %_ZN3re29Prefilter4Info9TakeMatchEv.exit

if.then.i:                                        ; preds = %if.end7
  %call.i = tail call noundef ptr @_ZN3re29Prefilter9OrStringsEPSt3setINSt7__cxx1112basic_stringIcSt11char_traitsIcESaIcEEENS0_13LengthThenLexESaIS7_EE(ptr noundef nonnull %call4)
  store i8 0, ptr %is_exact_.i, align 8
  br label %_ZN3re29Prefilter4Info9TakeMatchEv.exit

_ZN3re29Prefilter4Info9TakeMatchEv.exit:          ; preds = %entry.if.end_crit_edge.i, %if.then.i
  %2 = phi ptr [ %.pre.i, %entry.if.end_crit_edge.i ], [ %call.i, %if.then.i ]
  %match_3.i = getelementptr inbounds i8, ptr %call4, i64 56
  store ptr null, ptr %match_3.i, align 8
  tail call void @_ZN3re29Prefilter4InfoD1Ev(ptr noundef nonnull align 8 dereferenceable(64) %call4) #16
  tail call void @_ZdlPv(ptr noundef nonnull %call4) #18
  br label %return

return:                                           ; preds = %if.end3, %if.end, %entry, %_ZN3re29Prefilter4Info9TakeMatchEv.exit
  %retval.0 = phi ptr [ %2, %_ZN3re29Prefilter4Info9TakeMatchEv.exit ], [ null, %entry ], [ null, %if.end ], [ null, %if.end3 ]
  ret ptr %retval.0
}